(i__main__
lumitable
p0
(dp1
S'fontName'
p2
S'courier'
p3
sS'blockWidth'
p4
I6
sS'charRange'
p5
(I33
I126
tp6
sS'fontSize'
p7
I10
sS'charNumber'
p8
I93
sS'table'
p9
(lp10
(lp11
I77
aF157.37037037037038
aa(lp12
I72
aF160.55555555555551
aa(lp13
I78
aF168.74074074074073
aa(lp14
I87
aF170.96296296296293
aa(lp15
I35
aF173.7037037037037
aa(lp16
I69
aF174.7222222222222
aa(lp17
I66
aF175.27777777777774
aa(lp18
I68
aF179.05555555555551
aa(lp19
I64
aF180.7037037037037
aa(lp20
I82
aF181.20370370370367
aa(lp21
I75
aF181.59259259259258
aa(lp22
I85
aF186.20370370370367
aa(lp23
I80
aF187.14814814814812
aa(lp24
I104
aF187.22222222222223
aa(lp25
I70
aF188.88888888888886
aa(lp26
I84
aF188.88888888888886
aa(lp27
I107
aF188.94444444444446
aa(lp28
I52
aF190.77777777777774
aa(lp29
I37
aF191.07407407407405
aa(lp30
I109
aF191.6851851851852
aa(lp31
I76
aF193.6111111111111
aa(lp32
I90
aF194.7407407407407
aa(lp33
I102
aF195.6111111111111
aa(lp34
I98
aF196.66666666666666
aa(lp35
I100
aF196.88888888888886
aa(lp36
I122
aF197.27777777777777
aa(lp37
I119
aF197.88888888888886
aa(lp38
I89
aF198.07407407407408
aa(lp39
I65
aF198.64814814814815
aa(lp40
I88
aF199.05555555555554
aa(lp41
I110
aF200.75925925925924
aa(lp42
I117
aF201.9444444444444
aa(lp43
I74
aF202.4444444444444
aa(lp44
I48
aF202.90740740740742
aa(lp45
I36
aF203.42592592592592
aa(lp46
I71
aF203.4444444444444
aa(lp47
I53
aF204.88888888888886
aa(lp48
I49
aF206.6296296296296
aa(lp49
I86
aF206.8148148148148
aa(lp50
I83
aF207.16666666666663
aa(lp51
I116
aF207.27777777777774
aa(lp52
I73
aF207.77777777777774
aa(lp53
I97
aF210.09259259259258
aa(lp54
I61
aF210.2222222222222
aa(lp55
I113
aF210.46296296296293
aa(lp56
I103
aF210.66666666666663
aa(lp57
I112
aF210.7407407407407
aa(lp58
I56
aF210.9814814814815
aa(lp59
I57
aF211.66666666666666
aa(lp60
I108
aF212.49999999999997
aa(lp61
I54
aF212.96296296296293
aa(lp62
I114
aF213.18518518518516
aa(lp63
I120
aF213.6111111111111
aa(lp64
I43
aF214.79629629629628
aa(lp65
I101
aF215.25925925925927
aa(lp66
I121
aF216.18518518518516
aa(lp67
I50
aF216.4259259259259
aa(lp68
I38
aF216.44444444444446
aa(lp69
I55
aF216.64814814814812
aa(lp70
I51
aF216.66666666666663
aa(lp71
I67
aF216.75925925925924
aa(lp72
I115
aF217.09259259259255
aa(lp73
I105
aF217.2222222222222
aa(lp74
I106
aF217.2222222222222
aa(lp75
I118
aF218.9259259259259
aa(lp76
I91
aF221.9444444444444
aa(lp77
I93
aF221.9444444444444
aa(lp78
I111
aF222.37037037037032
aa(lp79
I125
aF224.85185185185182
aa(lp80
I63
aF225.1296296296296
aa(lp81
I79
aF225.29629629629628
aa(lp82
I81
aF226.40740740740742
aa(lp83
I123
aF227.07407407407405
aa(lp84
I124
aF227.27777777777774
aa(lp85
I99
aF227.3148148148148
aa(lp86
I34
aF228.48148148148144
aa(lp87
I42
aF228.88888888888886
aa(lp88
I60
aF231.49999999999997
aa(lp89
I62
aF231.5
aa(lp90
I33
aF235.01851851851848
aa(lp91
I41
aF235.98148148148144
aa(lp92
I45
aF236.1111111111111
aa(lp93
I92
aF236.16666666666666
aa(lp94
I47
aF239.24074074074073
aa(lp95
I40
aF239.49999999999997
aa(lp96
I39
aF241.77777777777774
aa(lp97
I94
aF244.18518518518516
aa(lp98
I59
aF249.05555555555554
aa(lp99
I44
aF249.14814814814812
aa(lp100
I46
aF249.4259259259259
aa(lp101
I58
aF249.81481481481478
aa(lp102
I96
aF251.79629629629628
aa(lp103
I95
aF254.99999999999997
aasS'blockHeight'
p104
I9
sb.